; Function Attrs: mustprogress nounwind uwtable
define hidden noundef zeroext i1 @_ZN22SystemDictionaryShared13warn_excludedEP13InstanceKlassPKc(ptr nocapture noundef readonly %0, ptr noundef %1) local_unnamed_addr #0 align 2 {
  %3 = tail call align 8 ptr @llvm.threadlocal.address.p0(ptr align 8 @_ZN6Thread12_thr_currentE)
  %4 = load ptr, ptr %3, align 8
  %5 = getelementptr inbounds i8, ptr %4, i64 800
  %6 = load ptr, ptr %5, align 8
  %7 = getelementptr inbounds i8, ptr %6, i64 24
  %8 = load ptr, ptr %7, align 8
  %9 = getelementptr inbounds i8, ptr %6, i64 32
  %10 = load ptr, ptr %9, align 8
  %11 = getelementptr inbounds i8, ptr %6, i64 40
  %12 = load ptr, ptr %11, align 8
  %13 = getelementptr inbounds i8, ptr %6, i64 8
  %14 = load i64, ptr %13, align 8
  %15 = load volatile ptr, ptr getelementptr inbounds (i8, ptr @_ZN16LogTagSetMappingILN6LogTag4typeE14ELS1_0ELS1_0ELS1_0ELS1_0ELS1_0EE7_tagsetE, i64 72), align 8
  %.not = icmp eq ptr %15, null
  br i1 %.not, label %20, label %16

16:                                               ; preds = %2
  %17 = getelementptr inbounds i8, ptr %0, i64 24
  %18 = load ptr, ptr %17, align 8
  %19 = tail call noundef ptr @_ZNK6Symbol11as_C_stringEv(ptr noundef nonnull align 4 dereferenceable(8) %18) #18
  tail call void (ptr, ...) @_ZN7LogImplILN6LogTag4typeE14ELS1_0ELS1_0ELS1_0ELS1_0ELS1_0EE5writeILN8LogLevel4typeE4EEEvPKcz(ptr noundef nonnull @.str, ptr noundef %19, ptr noundef %1)
  br label %20

20:                                               ; preds = %2, %16
  %21 = load ptr, ptr %8, align 8
  %.not.i.i.i.i = icmp eq ptr %21, null
  br i1 %.not.i.i.i.i, label %23, label %22

22:                                               ; preds = %20
  tail call void @_ZN5Arena17set_size_in_bytesEm(ptr noundef nonnull align 8 dereferenceable(48) %6, i64 noundef %14) #18
  tail call void @_ZN5Chunk9next_chopEPS_(ptr noundef nonnull %8) #18
  br label %23

23:                                               ; preds = %22, %20
  %24 = load ptr, ptr %9, align 8
  %.not8.i.i.i.i = icmp eq ptr %24, %10
  br i1 %.not8.i.i.i.i, label %_ZN12ResourceMarkD2Ev.exit, label %25

25:                                               ; preds = %23
  store ptr %8, ptr %7, align 8
  store ptr %10, ptr %9, align 8
  store ptr %12, ptr %11, align 8
  br label %_ZN12ResourceMarkD2Ev.exit

_ZN12ResourceMarkD2Ev.exit:                       ; preds = %23, %25
  ret i1 true
}